; Function Attrs: mustprogress nounwind uwtable
define void @_ZN21RelatedPacketDelegate5clearEv(ptr nocapture noundef nonnull align 8 dereferenceable(36) %0) local_unnamed_addr #2 align 2 personality ptr @__gxx_personality_v0 {
  %2 = getelementptr inbounds i8, ptr %0, i64 16
  %3 = load ptr, ptr %2, align 8
  %.not.i = icmp eq ptr %3, null
  br i1 %.not.i, label %_ZN5QHashIi16ft_framenum_typeE5clearEv.exit, label %4

4:                                                ; preds = %1
  %5 = load atomic i32, ptr %3 monotonic, align 4
  %6 = icmp eq i32 %5, -1
  br i1 %6, label %_ZN5QHashIi16ft_framenum_typeE5clearEv.exit, label %_ZN9QtPrivate8RefCount5derefEv.exit.i

_ZN9QtPrivate8RefCount5derefEv.exit.i:            ; preds = %4
  %7 = atomicrmw sub ptr %3, i32 1 seq_cst, align 4
  %.not3.i = icmp eq i32 %7, 1
  br i1 %.not3.i, label %8, label %_ZN5QHashIi16ft_framenum_typeE5clearEv.exit

8:                                                ; preds = %_ZN9QtPrivate8RefCount5derefEv.exit.i
  %9 = load ptr, ptr %2, align 8
  %10 = icmp eq ptr %9, null
  br i1 %10, label %_ZN5QHashIi16ft_framenum_typeE5clearEv.exit, label %11

11:                                               ; preds = %8
  %12 = getelementptr inbounds i8, ptr %9, i64 32
  %13 = load ptr, ptr %12, align 8
  %14 = icmp eq ptr %13, null
  br i1 %14, label %_ZN12QHashPrivate4DataINS_4NodeIi16ft_framenum_typeEEED2Ev.exit.i, label %15

15:                                               ; preds = %11
  %16 = getelementptr inbounds i8, ptr %13, i64 -8
  %17 = load i64, ptr %16, align 8
  %18 = icmp eq i64 %17, 0
  br i1 %18, label %.loopexit.i.i, label %.preheader.preheader.i.i

.preheader.preheader.i.i:                         ; preds = %15
  %19 = getelementptr inbounds %"struct.QHashPrivate::Span", ptr %13, i64 %17
  br label %.preheader.i.i

.preheader.i.i:                                   ; preds = %_ZN12QHashPrivate4SpanINS_4NodeIi16ft_framenum_typeEEED2Ev.exit.i.i, %.preheader.preheader.i.i
  %20 = phi ptr [ %21, %_ZN12QHashPrivate4SpanINS_4NodeIi16ft_framenum_typeEEED2Ev.exit.i.i ], [ %19, %.preheader.preheader.i.i ]
  %21 = getelementptr inbounds i8, ptr %20, i64 -144
  %22 = getelementptr inbounds i8, ptr %20, i64 -16
  %23 = load ptr, ptr %22, align 8
  %.not.i.i.i.i = icmp eq ptr %23, null
  br i1 %.not.i.i.i.i, label %_ZN12QHashPrivate4SpanINS_4NodeIi16ft_framenum_typeEEED2Ev.exit.i.i, label %24

24:                                               ; preds = %.preheader.i.i
  tail call void @_ZdaPv(ptr noundef nonnull %23) #14
  store ptr null, ptr %22, align 8
  br label %_ZN12QHashPrivate4SpanINS_4NodeIi16ft_framenum_typeEEED2Ev.exit.i.i

_ZN12QHashPrivate4SpanINS_4NodeIi16ft_framenum_typeEEED2Ev.exit.i.i: ; preds = %24, %.preheader.i.i
  %25 = icmp eq ptr %21, %13
  br i1 %25, label %.loopexit.i.i, label %.preheader.i.i

.loopexit.i.i:                                    ; preds = %_ZN12QHashPrivate4SpanINS_4NodeIi16ft_framenum_typeEEED2Ev.exit.i.i, %15
  tail call void @_ZdaPv(ptr noundef nonnull %16) #14
  br label %_ZN12QHashPrivate4DataINS_4NodeIi16ft_framenum_typeEEED2Ev.exit.i

_ZN12QHashPrivate4DataINS_4NodeIi16ft_framenum_typeEEED2Ev.exit.i: ; preds = %.loopexit.i.i, %11
  tail call void @_ZdlPv(ptr noundef %9) #14
  br label %_ZN5QHashIi16ft_framenum_typeE5clearEv.exit

_ZN5QHashIi16ft_framenum_typeE5clearEv.exit:      ; preds = %1, %4, %_ZN9QtPrivate8RefCount5derefEv.exit.i, %8, %_ZN12QHashPrivate4DataINS_4NodeIi16ft_framenum_typeEEED2Ev.exit.i
  tail call void @llvm.memset.p0.i64(ptr noundef nonnull align 8 dereferenceable(20) %2, i8 0, i64 20, i1 false)
  ret void
}